; Function Attrs: mustprogress nounwind uwtable
define hidden void @_ZNK14PSVirtualSpace25print_space_boundaries_onEP12outputStream(ptr nocapture noundef nonnull readonly align 8 dereferenceable(49) %0, ptr noundef nonnull %1) unnamed_addr #3 align 2 {
  %3 = getelementptr inbounds i8, ptr %0, i64 16
  %4 = load ptr, ptr %3, align 8
  %5 = ptrtoint ptr %4 to i64
  %6 = getelementptr inbounds i8, ptr %0, i64 40
  %7 = load ptr, ptr %6, align 8
  %8 = ptrtoint ptr %7 to i64
  %9 = getelementptr inbounds i8, ptr %0, i64 24
  %10 = load ptr, ptr %9, align 8
  %11 = ptrtoint ptr %10 to i64
  tail call void (ptr, ptr, ...) @_ZN12outputStream8print_crEPKcz(ptr noundef nonnull align 8 dereferenceable(56) %1, ptr noundef nonnull @.str, i64 noundef %5, i64 noundef %8, i64 noundef %11) #6
  ret void
}